; Function Attrs: nounwind uwtable
define ptr @l_Lean_PrettyPrinter_Delaborator_SubExpr_withAppArg___rarg(ptr noundef %0, ptr noundef %1, ptr noundef %2, ptr noundef %3) #0 {
  %5 = getelementptr inbounds nuw i8, ptr %0, i64 16
  %6 = load ptr, ptr %5, align 8, !tbaa !5
  %7 = ptrtoint ptr %6 to i64
  %8 = and i64 %7, 1
  %.not = icmp eq i64 %8, 0
  br i1 %.not, label %9, label %lean_inc.exit

9:                                                ; preds = %4
  %.val.i = load i32, ptr %6, align 4, !tbaa !9
  %10 = icmp sgt i32 %.val.i, 0
  br i1 %10, label %11, label %13, !prof !12

11:                                               ; preds = %9
  %12 = add nuw i32 %.val.i, 1
  store i32 %12, ptr %6, align 4, !tbaa !9
  br label %lean_inc.exit

13:                                               ; preds = %9
  %.not.i = icmp eq i32 %.val.i, 0
  br i1 %.not.i, label %lean_inc.exit, label %14

14:                                               ; preds = %13
  tail call void @lean_inc_ref_cold(ptr noundef nonnull %6) #5
  %.pre = load ptr, ptr %5, align 8, !tbaa !5
  %.pre13 = ptrtoint ptr %.pre to i64
  br label %lean_inc.exit

lean_inc.exit:                                    ; preds = %14, %13, %11, %4
  %.pre-phi = phi i64 [ %.pre13, %14 ], [ %7, %13 ], [ %7, %11 ], [ %7, %4 ]
  %15 = phi ptr [ %.pre, %14 ], [ %6, %13 ], [ %6, %11 ], [ %6, %4 ]
  %16 = and i64 %.pre-phi, 1
  %.not.i12 = icmp eq i64 %16, 0
  br i1 %.not.i12, label %17, label %lean_inc.exit.i

17:                                               ; preds = %lean_inc.exit
  %.val.i.i = load i32, ptr %15, align 4, !tbaa !9
  %18 = icmp sgt i32 %.val.i.i, 0
  br i1 %18, label %19, label %21, !prof !12

19:                                               ; preds = %17
  %20 = add nuw i32 %.val.i.i, 1
  store i32 %20, ptr %15, align 4, !tbaa !9
  br label %lean_inc.exit.i

21:                                               ; preds = %17
  %.not.i.i = icmp eq i32 %.val.i.i, 0
  br i1 %.not.i.i, label %lean_inc.exit.i, label %22

22:                                               ; preds = %21
  tail call void @lean_inc_ref_cold(ptr noundef nonnull %15) #5
  br label %lean_inc.exit.i

lean_inc.exit.i:                                  ; preds = %22, %21, %19, %lean_inc.exit
  tail call void @lean_inc_heartbeat() #5
  %23 = tail call noalias ptr @mi_malloc_small(i64 noundef 32) #5
  %24 = icmp eq ptr %23, null
  br i1 %24, label %25, label %l_Lean_PrettyPrinter_Delaborator_SubExpr_getExpr___rarg.exit

25:                                               ; preds = %lean_inc.exit.i
  tail call void @lean_internal_panic_out_of_memory() #6
  unreachable

l_Lean_PrettyPrinter_Delaborator_SubExpr_getExpr___rarg.exit: ; preds = %lean_inc.exit.i
  %26 = getelementptr inbounds nuw i8, ptr %23, i64 4
  store i32 1, ptr %23, align 4, !tbaa !9
  store i32 -184549344, ptr %26, align 4
  %27 = getelementptr inbounds nuw i8, ptr %23, i64 8
  store ptr @l_Lean_PrettyPrinter_Delaborator_SubExpr_getExpr___rarg___lambda__1, ptr %27, align 8, !tbaa !5
  %28 = getelementptr inbounds nuw i8, ptr %23, i64 16
  store i16 2, ptr %28, align 8, !tbaa !17
  %29 = getelementptr inbounds nuw i8, ptr %23, i64 18
  store i16 1, ptr %29, align 2, !tbaa !17
  %30 = getelementptr inbounds nuw i8, ptr %23, i64 24
  store ptr %0, ptr %30, align 8, !tbaa !5
  %31 = tail call ptr @lean_apply_4(ptr noundef %15, ptr noundef nonnull inttoptr (i64 1 to ptr), ptr noundef nonnull inttoptr (i64 1 to ptr), ptr noundef %1, ptr noundef nonnull %23) #5
  tail call void @lean_inc_heartbeat() #5
  %32 = tail call noalias ptr @mi_malloc_small(i64 noundef 40) #5
  %33 = icmp eq ptr %32, null
  br i1 %33, label %34, label %lean_alloc_closure.exit

34:                                               ; preds = %l_Lean_PrettyPrinter_Delaborator_SubExpr_getExpr___rarg.exit
  tail call void @lean_internal_panic_out_of_memory() #6
  unreachable

lean_alloc_closure.exit:                          ; preds = %l_Lean_PrettyPrinter_Delaborator_SubExpr_getExpr___rarg.exit
  %35 = getelementptr inbounds nuw i8, ptr %32, i64 4
  store i32 1, ptr %32, align 4, !tbaa !9
  store i32 -184549336, ptr %35, align 4
  %36 = getelementptr inbounds nuw i8, ptr %32, i64 8
  store ptr @l_Lean_PrettyPrinter_Delaborator_SubExpr_withAppArg___rarg___lambda__1___boxed, ptr %36, align 8, !tbaa !5
  %37 = getelementptr inbounds nuw i8, ptr %32, i64 16
  store i16 3, ptr %37, align 8, !tbaa !17
  %38 = getelementptr inbounds nuw i8, ptr %32, i64 18
  store i16 2, ptr %38, align 2, !tbaa !17
  %39 = getelementptr inbounds nuw i8, ptr %32, i64 24
  store ptr %2, ptr %39, align 8, !tbaa !5
  %40 = getelementptr inbounds nuw i8, ptr %32, i64 32
  store ptr %3, ptr %40, align 8, !tbaa !5
  %41 = tail call ptr @lean_apply_4(ptr noundef %6, ptr noundef nonnull inttoptr (i64 1 to ptr), ptr noundef nonnull inttoptr (i64 1 to ptr), ptr noundef %31, ptr noundef nonnull %32) #5
  ret ptr %41
}